target datalayout = "e-m:e-p270:32:32-p271:32:32-p272:64:64-i64:64-i128:128-f80:128-n8:16:32:64-S128"
target triple = "x86_64-pc-linux-gnu"

@.str.52 = private unnamed_addr constant [2 x i8] c"O\00", align 1
@PyExc_OSError = external global ptr, align 8
@.str.75 = private unnamed_addr constant [10 x i8] c"O&s:dlsym\00", align 1
@.str.76 = private unnamed_addr constant [20 x i8] c"ctypes.dlsym/handle\00", align 1
@.str.77 = private unnamed_addr constant [22 x i8] c"symbol '%s' not found\00", align 1

; Function Attrs: nounwind uwtable
define internal ptr @py_dl_sym(ptr noundef %0, ptr noundef %1) #0 {
  %3 = alloca ptr, align 8
  %4 = alloca ptr, align 8
  %5 = alloca ptr, align 8
  %6 = alloca ptr, align 8
  %7 = alloca ptr, align 8
  %8 = alloca ptr, align 8
  %9 = alloca i32, align 4
  %10 = alloca ptr, align 8
  store ptr %0, ptr %4, align 8, !tbaa !9
  store ptr %1, ptr %5, align 8, !tbaa !9
  call void @llvm.lifetime.start.p0(i64 8, ptr %6) #10
  call void @llvm.lifetime.start.p0(i64 8, ptr %7) #10
  call void @llvm.lifetime.start.p0(i64 8, ptr %8) #10
  %11 = load ptr, ptr %5, align 8, !tbaa !9
  %12 = call i32 (ptr, ptr, ...) @PyArg_ParseTuple(ptr noundef %11, ptr noundef @.str.75, ptr noundef @_parse_voidp, ptr noundef %7, ptr noundef %6)
  %13 = icmp ne i32 %12, 0
  br i1 %13, label %15, label %14

14:                                               ; preds = %2
  store ptr null, ptr %3, align 8
  store i32 1, ptr %9, align 4
  br label %42

15:                                               ; preds = %2
  %16 = load ptr, ptr %5, align 8, !tbaa !9
  %17 = call i32 (ptr, ptr, ...) @PySys_Audit(ptr noundef @.str.76, ptr noundef @.str.52, ptr noundef %16)
  %18 = icmp slt i32 %17, 0
  br i1 %18, label %19, label %20

19:                                               ; preds = %15
  store ptr null, ptr %3, align 8
  store i32 1, ptr %9, align 4
  br label %42

20:                                               ; preds = %15
  %21 = call ptr @dlerror() #10
  %22 = load ptr, ptr %7, align 8, !tbaa !3
  %23 = load ptr, ptr %6, align 8, !tbaa !27
  %24 = call ptr @dlsym(ptr noundef %22, ptr noundef %23) #10
  store ptr %24, ptr %8, align 8, !tbaa !3
  %25 = load ptr, ptr %8, align 8, !tbaa !3
  %26 = icmp ne ptr %25, null
  br i1 %26, label %27, label %30

27:                                               ; preds = %20
  %28 = load ptr, ptr %8, align 8, !tbaa !3
  %29 = call ptr @PyLong_FromVoidPtr(ptr noundef %28)
  store ptr %29, ptr %3, align 8
  store i32 1, ptr %9, align 4
  br label %42

30:                                               ; preds = %20
  call void @llvm.lifetime.start.p0(i64 8, ptr %10) #10
  %31 = call ptr @dlerror() #10
  store ptr %31, ptr %10, align 8, !tbaa !27
  %32 = load ptr, ptr %10, align 8, !tbaa !27
  %33 = icmp ne ptr %32, null
  br i1 %33, label %34, label %37

34:                                               ; preds = %30
  %35 = load ptr, ptr @PyExc_OSError, align 8, !tbaa !9
  %36 = load ptr, ptr %10, align 8, !tbaa !27
  call void @_PyErr_SetLocaleString(ptr noundef %35, ptr noundef %36)
  store ptr null, ptr %3, align 8
  store i32 1, ptr %9, align 4
  br label %41

37:                                               ; preds = %30
  %38 = load ptr, ptr @PyExc_OSError, align 8, !tbaa !9
  %39 = load ptr, ptr %6, align 8, !tbaa !27
  %40 = call ptr (ptr, ptr, ...) @PyErr_Format(ptr noundef %38, ptr noundef @.str.77, ptr noundef %39)
  store ptr null, ptr %3, align 8
  store i32 1, ptr %9, align 4
  br label %41

41:                                               ; preds = %37, %34
  call void @llvm.lifetime.end.p0(i64 8, ptr %10) #10
  br label %42

42:                                               ; preds = %41, %27, %19, %14
  call void @llvm.lifetime.end.p0(i64 8, ptr %8) #10
  call void @llvm.lifetime.end.p0(i64 8, ptr %7) #10
  call void @llvm.lifetime.end.p0(i64 8, ptr %6) #10
  %43 = load ptr, ptr %3, align 8
  ret ptr %43
}