; Function Attrs: nounwind uwtable
define internal ptr @py_dl_sym(ptr readnone captures(none) %0, ptr noundef %1) #0 {
  %3 = alloca ptr, align 8
  %4 = alloca ptr, align 8
  call void @llvm.lifetime.start.p0(i64 8, ptr nonnull %3) #10
  call void @llvm.lifetime.start.p0(i64 8, ptr nonnull %4) #10
  %5 = call i32 (ptr, ptr, ...) @PyArg_ParseTuple(ptr noundef %1, ptr noundef nonnull @.str.75, ptr noundef nonnull @_parse_voidp, ptr noundef nonnull %4, ptr noundef nonnull %3) #10
  %.not = icmp eq i32 %5, 0
  br i1 %.not, label %23, label %6

6:                                                ; preds = %2
  %7 = call i32 (ptr, ptr, ...) @PySys_Audit(ptr noundef nonnull @.str.76, ptr noundef nonnull @.str.52, ptr noundef %1) #10
  %8 = icmp slt i32 %7, 0
  br i1 %8, label %23, label %9

9:                                                ; preds = %6
  %10 = call ptr @dlerror() #10
  %11 = load ptr, ptr %4, align 8, !tbaa !41
  %12 = load ptr, ptr %3, align 8, !tbaa !73
  %13 = call ptr @dlsym(ptr noundef %11, ptr noundef %12) #10
  %.not9 = icmp eq ptr %13, null
  br i1 %.not9, label %16, label %14

14:                                               ; preds = %9
  %15 = call ptr @PyLong_FromVoidPtr(ptr noundef nonnull %13) #10
  br label %23

16:                                               ; preds = %9
  %17 = call ptr @dlerror() #10
  %.not10 = icmp eq ptr %17, null
  %18 = load ptr, ptr @PyExc_OSError, align 8, !tbaa !3
  br i1 %.not10, label %20, label %19

19:                                               ; preds = %16
  call void @_PyErr_SetLocaleString(ptr noundef %18, ptr noundef nonnull %17) #10
  br label %23

20:                                               ; preds = %16
  %21 = load ptr, ptr %3, align 8, !tbaa !73
  %22 = call ptr (ptr, ptr, ...) @PyErr_Format(ptr noundef %18, ptr noundef nonnull @.str.77, ptr noundef %21) #10
  br label %23

23:                                               ; preds = %19, %20, %6, %2, %14
  %.0 = phi ptr [ %15, %14 ], [ null, %2 ], [ null, %6 ], [ null, %20 ], [ null, %19 ]
  call void @llvm.lifetime.end.p0(i64 8, ptr nonnull %4) #10
  call void @llvm.lifetime.end.p0(i64 8, ptr nonnull %3) #10
  ret ptr %.0
}